; Function Attrs: nounwind uwtable
define range(i32 -2147483648, 2147483647) i32 @Abc_NodeCheckFanoutHasFanin(ptr noundef readonly captures(none) %0, ptr noundef %1) local_unnamed_addr #0 {
  %3 = getelementptr i8, ptr %0, i64 44
  %.val11 = load i32, ptr %3, align 4, !tbaa !37
  %4 = icmp sgt i32 %.val11, 0
  br i1 %4, label %.lr.ph, label %.critedge

.lr.ph:                                           ; preds = %2
  %5 = getelementptr i8, ptr %0, i64 48
  br label %6

6:                                                ; preds = %.lr.ph, %16
  %indvars.iv = phi i64 [ 0, %.lr.ph ], [ %indvars.iv.next, %16 ]
  %.val9 = load ptr, ptr %0, align 8, !tbaa !41
  %.val10 = load ptr, ptr %5, align 8, !tbaa !42
  %7 = getelementptr i8, ptr %.val9, i64 32
  %.val9.val = load ptr, ptr %7, align 8, !tbaa !43
  %8 = getelementptr i8, ptr %.val9.val, i64 8
  %.val9.val.val = load ptr, ptr %8, align 8, !tbaa !54
  %9 = getelementptr inbounds nuw i32, ptr %.val10, i64 %indvars.iv
  %10 = load i32, ptr %9, align 4, !tbaa !15
  %11 = sext i32 %10 to i64
  %12 = getelementptr inbounds ptr, ptr %.val9.val.val, i64 %11
  %13 = load ptr, ptr %12, align 8, !tbaa !56
  %14 = tail call i32 @Abc_NodeFindFanin(ptr noundef %13, ptr noundef %1) #13
  %15 = icmp sgt i32 %14, -1
  br i1 %15, label %.critedge.loopexit.split.loop.exit16, label %16

16:                                               ; preds = %6
  %indvars.iv.next = add nuw nsw i64 %indvars.iv, 1
  %.val = load i32, ptr %3, align 4, !tbaa !37
  %17 = sext i32 %.val to i64
  %18 = icmp slt i64 %indvars.iv.next, %17
  br i1 %18, label %6, label %.critedge, !llvm.loop !57

.critedge.loopexit.split.loop.exit16:             ; preds = %6
  %19 = trunc nuw nsw i64 %indvars.iv to i32
  br label %.critedge

.critedge:                                        ; preds = %16, %.critedge.loopexit.split.loop.exit16, %2
  %.08 = phi i32 [ -1, %2 ], [ %19, %.critedge.loopexit.split.loop.exit16 ], [ -1, %16 ]
  ret i32 %.08
}